target datalayout = "e-m:e-p270:32:32-p271:32:32-p272:64:64-i64:64-i128:128-f80:128-n8:16:32:64-S128"
target triple = "x86_64-pc-linux-gnu"

%class.DataLayout = type { %union.anon, [1 x i64] }
%union.anon = type { i64 }
%class.ProfileData = type { ptr, ptr }
%class.TypeStackSlotEntries = type { %class.TypeEntries.base, i32 }
%class.TypeEntries.base = type <{ ptr, i32 }>
%class.TypeEntries = type <{ ptr, i32, [4 x i8] }>
%class.CounterData = type { %class.BitData }
%class.BitData = type { %class.ProfileData }
%class.ReturnTypeEntry = type { %class.TypeEntries.base, [4 x i8] }
%class.VirtualCallTypeData = type { %class.VirtualCallData, %class.TypeStackSlotEntries, %class.ReturnTypeEntry }
%class.VirtualCallData = type { %class.ReceiverTypeData }
%class.ReceiverTypeData = type { %class.CounterData }

@.str.16 = private unnamed_addr constant [5 x i8] c"none\00", align 1
@.str.17 = private unnamed_addr constant [8 x i8] c"unknown\00", align 1
@.str.18 = private unnamed_addr constant [13 x i8] c" (null seen)\00", align 1
@.str.20 = private unnamed_addr constant [15 x i8] c"argument types\00", align 1
@.str.21 = private unnamed_addr constant [12 x i8] c"return type\00", align 1
@.str.25 = private unnamed_addr constant [16 x i8] c"VirtualCallData\00", align 1
@TypeProfileWidth = external global i64, align 8

; Function Attrs: mustprogress nounwind uwtable
define linkonce_odr hidden noundef i32 @_ZN16ReceiverTypeData17static_cell_countEv() #1 comdat align 2 {
  %1 = load i64, ptr @TypeProfileWidth, align 8
  %2 = trunc i64 %1 to i32
  %3 = mul i32 %2, 2
  %4 = add i32 1, %3
  ret i32 %4
}

; Function Attrs: mustprogress nounwind uwtable
define linkonce_odr hidden noundef i64 @_ZN11TypeEntries10klass_partEl(i64 noundef %0) #1 comdat align 2 {
  %2 = alloca i64, align 8
  %3 = alloca i64, align 8
  store i64 %0, ptr %2, align 8
  %4 = load i64, ptr %2, align 8
  %5 = and i64 %4, -4
  store i64 %5, ptr %3, align 8
  %6 = load i64, ptr %3, align 8
  ret i64 %6
}

; Function Attrs: mustprogress nounwind uwtable
define linkonce_odr hidden noundef i64 @_ZNK10DataLayout7cell_atEi(ptr noundef nonnull align 8 dereferenceable(16) %0, i32 noundef %1) #1 comdat align 2 {
  %3 = alloca ptr, align 8
  %4 = alloca i32, align 4
  store ptr %0, ptr %3, align 8
  store i32 %1, ptr %4, align 4
  %5 = load ptr, ptr %3, align 8
  %6 = getelementptr inbounds %class.DataLayout, ptr %5, i32 0, i32 1
  %7 = load i32, ptr %4, align 4
  %8 = sext i32 %7 to i64
  %9 = getelementptr inbounds [1 x i64], ptr %6, i64 0, i64 %8
  %10 = load i64, ptr %9, align 8
  ret i64 %10
}

; Function Attrs: mustprogress nounwind uwtable
define linkonce_odr hidden noundef ptr @_ZNK11ProfileData4dataEv(ptr noundef nonnull align 8 dereferenceable(16) %0) #1 comdat align 2 {
  %2 = alloca ptr, align 8
  store ptr %0, ptr %2, align 8
  %3 = load ptr, ptr %2, align 8
  %4 = getelementptr inbounds %class.ProfileData, ptr %3, i32 0, i32 1
  %5 = load ptr, ptr %4, align 8
  ret ptr %5
}

; Function Attrs: mustprogress nounwind uwtable
define linkonce_odr hidden noundef i32 @_ZN17TypeEntriesAtCall23cell_count_local_offsetEv() #1 comdat align 2 {
  ret i32 0
}

; Function Attrs: mustprogress nounwind uwtable
define linkonce_odr hidden noundef i32 @_ZN15VirtualCallData17static_cell_countEv() #1 comdat align 2 {
  %1 = call noundef i32 @_ZN16ReceiverTypeData17static_cell_countEv()
  ret i32 %1
}

; Function Attrs: mustprogress nounwind uwtable
define linkonce_odr hidden noundef zeroext i1 @_ZN11TypeEntries13was_null_seenEl(i64 noundef %0) #1 comdat align 2 {
  %2 = alloca i64, align 8
  store i64 %0, ptr %2, align 8
  %3 = load i64, ptr %2, align 8
  %4 = and i64 %3, 1
  %5 = icmp ne i64 %4, 0
  ret i1 %5
}

; Function Attrs: mustprogress nounwind uwtable
define linkonce_odr hidden noundef ptr @_ZN11TypeEntries11valid_klassEl(i64 noundef %0) #1 comdat align 2 {
  %2 = alloca ptr, align 8
  %3 = alloca i64, align 8
  %4 = alloca ptr, align 8
  store i64 %0, ptr %3, align 8
  %5 = load i64, ptr %3, align 8
  %6 = call noundef zeroext i1 @_ZN11TypeEntries12is_type_noneEl(i64 noundef %5)
  br i1 %6, label %15, label %7

7:                                                ; preds = %1
  %8 = load i64, ptr %3, align 8
  %9 = call noundef zeroext i1 @_ZN11TypeEntries15is_type_unknownEl(i64 noundef %8)
  br i1 %9, label %15, label %10

10:                                               ; preds = %7
  %11 = load i64, ptr %3, align 8
  %12 = call noundef i64 @_ZN11TypeEntries10klass_partEl(i64 noundef %11)
  %13 = inttoptr i64 %12 to ptr
  store ptr %13, ptr %4, align 8
  %14 = load ptr, ptr %4, align 8
  store ptr %14, ptr %2, align 8
  br label %16

15:                                               ; preds = %7, %1
  store ptr null, ptr %2, align 8
  br label %16

16:                                               ; preds = %15, %10
  %17 = load ptr, ptr %2, align 8
  ret ptr %17
}

; Function Attrs: mustprogress nounwind uwtable
define linkonce_odr hidden noundef zeroext i1 @_ZN11TypeEntries15is_type_unknownEl(i64 noundef %0) #1 comdat align 2 {
  %2 = alloca i64, align 8
  store i64 %0, ptr %2, align 8
  %3 = load i64, ptr %2, align 8
  %4 = and i64 %3, 2
  %5 = icmp ne i64 %4, 0
  ret i1 %5
}

; Function Attrs: mustprogress nounwind uwtable
define linkonce_odr hidden noundef zeroext i1 @_ZN11TypeEntries12is_type_noneEl(i64 noundef %0) #1 comdat align 2 {
  %2 = alloca i64, align 8
  store i64 %0, ptr %2, align 8
  %3 = load i64, ptr %2, align 8
  %4 = and i64 %3, -2
  %5 = icmp eq i64 %4, 0
  ret i1 %5
}

; Function Attrs: mustprogress nounwind uwtable
define linkonce_odr hidden noundef i64 @_ZNK11ProfileData9intptr_atEi(ptr noundef nonnull align 8 dereferenceable(16) %0, i32 noundef %1) #1 comdat align 2 {
  %3 = alloca ptr, align 8
  %4 = alloca i32, align 4
  store ptr %0, ptr %3, align 8
  store i32 %1, ptr %4, align 4
  %5 = load ptr, ptr %3, align 8
  %6 = call noundef ptr @_ZNK11ProfileData4dataEv(ptr noundef nonnull align 8 dereferenceable(16) %5)
  %7 = load i32, ptr %4, align 4
  %8 = call noundef i64 @_ZNK10DataLayout7cell_atEi(ptr noundef nonnull align 8 dereferenceable(16) %6, i32 noundef %7)
  ret i64 %8
}

; Function Attrs: mustprogress nounwind uwtable
define linkonce_odr hidden noundef i32 @_ZNK11ProfileData7uint_atEi(ptr noundef nonnull align 8 dereferenceable(16) %0, i32 noundef %1) #1 comdat align 2 {
  %3 = alloca ptr, align 8
  %4 = alloca i32, align 4
  store ptr %0, ptr %3, align 8
  store i32 %1, ptr %4, align 4
  %5 = load ptr, ptr %3, align 8
  %6 = load i32, ptr %4, align 4
  %7 = call noundef i64 @_ZNK11ProfileData9intptr_atEi(ptr noundef nonnull align 8 dereferenceable(16) %5, i32 noundef %6)
  %8 = trunc i64 %7 to i32
  ret i32 %8
}

; Function Attrs: mustprogress nounwind uwtable
define linkonce_odr hidden noundef i32 @_ZNK19VirtualCallTypeData24cell_count_global_offsetEv(ptr noundef nonnull align 8 dereferenceable(48) %0) #1 comdat align 2 {
  %2 = alloca ptr, align 8
  store ptr %0, ptr %2, align 8
  %3 = call noundef i32 @_ZN15VirtualCallData17static_cell_countEv()
  %4 = call noundef i32 @_ZN17TypeEntriesAtCall23cell_count_local_offsetEv()
  %5 = add nsw i32 %3, %4
  ret i32 %5
}

; Function Attrs: mustprogress nounwind uwtable
define hidden void @_ZN11TypeEntries11print_klassEP12outputStreaml(ptr noundef %0, i64 noundef %1) #1 align 2 {
  %3 = alloca ptr, align 8
  %4 = alloca i64, align 8
  store ptr %0, ptr %3, align 8
  store i64 %1, ptr %4, align 8
  %5 = load i64, ptr %4, align 8
  %6 = call noundef zeroext i1 @_ZN11TypeEntries12is_type_noneEl(i64 noundef %5)
  br i1 %6, label %7, label %9

7:                                                ; preds = %2
  %8 = load ptr, ptr %3, align 8
  call void (ptr, ptr, ...) @_ZN12outputStream5printEPKcz(ptr noundef nonnull align 8 dereferenceable(56) %8, ptr noundef @.str.16)
  br label %22

9:                                                ; preds = %2
  %10 = load i64, ptr %4, align 8
  %11 = call noundef zeroext i1 @_ZN11TypeEntries15is_type_unknownEl(i64 noundef %10)
  br i1 %11, label %12, label %14

12:                                               ; preds = %9
  %13 = load ptr, ptr %3, align 8
  call void (ptr, ptr, ...) @_ZN12outputStream5printEPKcz(ptr noundef nonnull align 8 dereferenceable(56) %13, ptr noundef @.str.17)
  br label %21

14:                                               ; preds = %9
  %15 = load i64, ptr %4, align 8
  %16 = call noundef ptr @_ZN11TypeEntries11valid_klassEl(i64 noundef %15)
  %17 = load ptr, ptr %3, align 8
  %18 = load ptr, ptr %16, align 8
  %19 = getelementptr inbounds ptr, ptr %18, i64 11
  %20 = load ptr, ptr %19, align 8
  call void %20(ptr noundef nonnull align 8 dereferenceable(8) %16, ptr noundef %17)
  br label %21

21:                                               ; preds = %14, %12
  br label %22

22:                                               ; preds = %21, %7
  %23 = load i64, ptr %4, align 8
  %24 = call noundef zeroext i1 @_ZN11TypeEntries13was_null_seenEl(i64 noundef %23)
  br i1 %24, label %25, label %27

25:                                               ; preds = %22
  %26 = load ptr, ptr %3, align 8
  call void (ptr, ptr, ...) @_ZN12outputStream5printEPKcz(ptr noundef nonnull align 8 dereferenceable(56) %26, ptr noundef @.str.18)
  br label %27

27:                                               ; preds = %25, %22
  ret void
}

; Function Attrs: mustprogress nounwind uwtable
define linkonce_odr hidden noundef i64 @_ZNK15ReturnTypeEntry4typeEv(ptr noundef nonnull align 8 dereferenceable(12) %0) #1 comdat align 2 {
  %2 = alloca ptr, align 8
  store ptr %0, ptr %2, align 8
  %3 = load ptr, ptr %2, align 8
  %4 = getelementptr inbounds %class.TypeEntries, ptr %3, i32 0, i32 0
  %5 = load ptr, ptr %4, align 8
  %6 = getelementptr inbounds %class.TypeEntries, ptr %3, i32 0, i32 1
  %7 = load i32, ptr %6, align 8
  %8 = call noundef i64 @_ZNK11ProfileData9intptr_atEi(ptr noundef nonnull align 8 dereferenceable(16) %5, i32 noundef %7)
  ret i64 %8
}

; Function Attrs: mustprogress nounwind uwtable
define linkonce_odr hidden noundef i32 @_ZN20TypeStackSlotEntries13per_arg_countEv() #1 comdat align 2 {
  ret i32 2
}

; Function Attrs: mustprogress nounwind uwtable
define linkonce_odr hidden noundef i32 @_ZNK19VirtualCallTypeData20cell_count_no_headerEv(ptr noundef nonnull align 8 dereferenceable(48) %0) #1 comdat align 2 {
  %2 = alloca ptr, align 8
  store ptr %0, ptr %2, align 8
  %3 = load ptr, ptr %2, align 8
  %4 = call noundef i32 @_ZNK19VirtualCallTypeData24cell_count_global_offsetEv(ptr noundef nonnull align 8 dereferenceable(48) %3)
  %5 = call noundef i32 @_ZNK11ProfileData7uint_atEi(ptr noundef nonnull align 8 dereferenceable(16) %3, i32 noundef %4)
  ret i32 %5
}

; Function Attrs: mustprogress nounwind uwtable
define hidden void @_ZNK15ReturnTypeEntry13print_data_onEP12outputStream(ptr noundef nonnull align 8 dereferenceable(12) %0, ptr noundef %1) #1 align 2 {
  %3 = alloca ptr, align 8
  %4 = alloca ptr, align 8
  store ptr %0, ptr %3, align 8
  store ptr %1, ptr %4, align 8
  %5 = load ptr, ptr %3, align 8
  %6 = getelementptr inbounds %class.TypeEntries, ptr %5, i32 0, i32 0
  %7 = load ptr, ptr %6, align 8
  %8 = load ptr, ptr %4, align 8
  call void @_ZNK11ProfileData3tabEP12outputStreamb(ptr noundef nonnull align 8 dereferenceable(16) %7, ptr noundef %8, i1 noundef zeroext false)
  %9 = load ptr, ptr %4, align 8
  %10 = call noundef i64 @_ZNK15ReturnTypeEntry4typeEv(ptr noundef nonnull align 8 dereferenceable(12) %5)
  call void @_ZN11TypeEntries11print_klassEP12outputStreaml(ptr noundef %9, i64 noundef %10)
  %11 = load ptr, ptr %4, align 8
  call void @_ZN12outputStream2crEv(ptr noundef nonnull align 8 dereferenceable(56) %11)
  ret void
}

; Function Attrs: mustprogress nounwind uwtable
define linkonce_odr hidden noundef zeroext i1 @_ZNK19VirtualCallTypeData10has_returnEv(ptr noundef nonnull align 8 dereferenceable(48) %0) #1 comdat align 2 {
  %2 = alloca ptr, align 8
  %3 = alloca i8, align 1
  store ptr %0, ptr %2, align 8
  %4 = load ptr, ptr %2, align 8
  %5 = call noundef i32 @_ZNK19VirtualCallTypeData20cell_count_no_headerEv(ptr noundef nonnull align 8 dereferenceable(48) %4)
  %6 = call noundef i32 @_ZN20TypeStackSlotEntries13per_arg_countEv()
  %7 = srem i32 %5, %6
  %8 = icmp ne i32 %7, 0
  %9 = zext i1 %8 to i8
  store i8 %9, ptr %3, align 1
  %10 = load i8, ptr %3, align 1
  %11 = trunc i8 %10 to i1
  ret i1 %11
}

; Function Attrs: mustprogress nounwind uwtable
define hidden void @_ZNK11ProfileData3tabEP12outputStreamb(ptr noundef nonnull align 8 dereferenceable(16) %0, ptr noundef %1, i1 noundef zeroext %2) #1 align 2 {
  %4 = alloca ptr, align 8
  %5 = alloca ptr, align 8
  %6 = alloca i8, align 1
  store ptr %0, ptr %4, align 8
  store ptr %1, ptr %5, align 8
  %7 = zext i1 %2 to i8
  store i8 %7, ptr %6, align 1
  %8 = load ptr, ptr %5, align 8
  %9 = load i8, ptr %6, align 1
  %10 = trunc i8 %9 to i1
  %11 = select i1 %10, i32 16, i32 36
  %12 = call noundef i32 @_ZN12outputStream7fill_toEi(ptr noundef nonnull align 8 dereferenceable(56) %8, i32 noundef %11)
  ret void
}

; Function Attrs: mustprogress nounwind uwtable
define linkonce_odr hidden noundef zeroext i1 @_ZNK19VirtualCallTypeData13has_argumentsEv(ptr noundef nonnull align 8 dereferenceable(48) %0) #1 comdat align 2 {
  %2 = alloca ptr, align 8
  %3 = alloca i8, align 1
  store ptr %0, ptr %2, align 8
  %4 = load ptr, ptr %2, align 8
  %5 = call noundef i32 @_ZNK19VirtualCallTypeData20cell_count_no_headerEv(ptr noundef nonnull align 8 dereferenceable(48) %4)
  %6 = call noundef i32 @_ZN20TypeStackSlotEntries13per_arg_countEv()
  %7 = icmp sge i32 %5, %6
  %8 = zext i1 %7 to i8
  store i8 %8, ptr %3, align 1
  %9 = load i8, ptr %3, align 1
  %10 = trunc i8 %9 to i1
  ret i1 %10
}

; Function Attrs: mustprogress nounwind uwtable
define hidden void @_ZNK15VirtualCallData13print_data_onEP12outputStreamPKc(ptr noundef nonnull align 8 dereferenceable(16) %0, ptr noundef %1, ptr noundef %2) unnamed_addr #1 align 2 {
  %4 = alloca ptr, align 8
  %5 = alloca ptr, align 8
  %6 = alloca ptr, align 8
  store ptr %0, ptr %4, align 8
  store ptr %1, ptr %5, align 8
  store ptr %2, ptr %6, align 8
  %7 = load ptr, ptr %4, align 8
  %8 = load ptr, ptr %5, align 8
  %9 = load ptr, ptr %6, align 8
  call void @_ZNK11ProfileData12print_sharedEP12outputStreamPKcS3_(ptr noundef nonnull align 8 dereferenceable(16) %7, ptr noundef %8, ptr noundef @.str.25, ptr noundef %9)
  %10 = load ptr, ptr %5, align 8
  call void @_ZNK16ReceiverTypeData22print_receiver_data_onEP12outputStream(ptr noundef nonnull align 8 dereferenceable(16) %7, ptr noundef %10)
  ret void
}

; Function Attrs: mustprogress nounwind uwtable
define hidden void @_ZNK19VirtualCallTypeData13print_data_onEP12outputStreamPKc(ptr noundef nonnull align 8 dereferenceable(48) %0, ptr noundef %1, ptr noundef %2) unnamed_addr #1 align 2 {
  %4 = alloca ptr, align 8
  %5 = alloca ptr, align 8
  %6 = alloca ptr, align 8
  store ptr %0, ptr %4, align 8
  store ptr %1, ptr %5, align 8
  store ptr %2, ptr %6, align 8
  %7 = load ptr, ptr %4, align 8
  %8 = load ptr, ptr %5, align 8
  %9 = load ptr, ptr %6, align 8
  call void @_ZNK15VirtualCallData13print_data_onEP12outputStreamPKc(ptr noundef nonnull align 8 dereferenceable(16) %7, ptr noundef %8, ptr noundef %9)
  %10 = call noundef zeroext i1 @_ZNK19VirtualCallTypeData13has_argumentsEv(ptr noundef nonnull align 8 dereferenceable(48) %7)
  br i1 %10, label %11, label %16

11:                                               ; preds = %3
  %12 = load ptr, ptr %5, align 8
  call void @_ZNK11ProfileData3tabEP12outputStreamb(ptr noundef nonnull align 8 dereferenceable(16) %7, ptr noundef %12, i1 noundef zeroext true)
  %13 = load ptr, ptr %5, align 8
  call void (ptr, ptr, ...) @_ZN12outputStream5printEPKcz(ptr noundef nonnull align 8 dereferenceable(56) %13, ptr noundef @.str.20)
  %14 = getelementptr inbounds %class.VirtualCallTypeData, ptr %7, i32 0, i32 1
  %15 = load ptr, ptr %5, align 8
  call void @_ZNK20TypeStackSlotEntries13print_data_onEP12outputStream(ptr noundef nonnull align 8 dereferenceable(16) %14, ptr noundef %15)
  br label %16

16:                                               ; preds = %11, %3
  %17 = call noundef zeroext i1 @_ZNK19VirtualCallTypeData10has_returnEv(ptr noundef nonnull align 8 dereferenceable(48) %7)
  br i1 %17, label %18, label %23

18:                                               ; preds = %16
  %19 = load ptr, ptr %5, align 8
  call void @_ZNK11ProfileData3tabEP12outputStreamb(ptr noundef nonnull align 8 dereferenceable(16) %7, ptr noundef %19, i1 noundef zeroext true)
  %20 = load ptr, ptr %5, align 8
  call void (ptr, ptr, ...) @_ZN12outputStream5printEPKcz(ptr noundef nonnull align 8 dereferenceable(56) %20, ptr noundef @.str.21)
  %21 = getelementptr inbounds %class.VirtualCallTypeData, ptr %7, i32 0, i32 2
  %22 = load ptr, ptr %5, align 8
  call void @_ZNK15ReturnTypeEntry13print_data_onEP12outputStream(ptr noundef nonnull align 8 dereferenceable(12) %21, ptr noundef %22)
  br label %23

23:                                               ; preds = %18, %16
  ret void
}