; Function Attrs: mustprogress nounwind uwtable
define hidden void @_ZNK19VirtualCallTypeData13print_data_onEP12outputStreamPKc(ptr nocapture noundef nonnull readonly align 8 dereferenceable(48) %0, ptr noundef nonnull %1, ptr noundef %2) unnamed_addr #2 align 2 {
  tail call void @_ZNK11ProfileData12print_sharedEP12outputStreamPKcS3_(ptr noundef nonnull readonly align 8 dereferenceable(16) %0, ptr noundef %1, ptr noundef nonnull @.str.25, ptr noundef %2)
  tail call void @_ZNK16ReceiverTypeData22print_receiver_data_onEP12outputStream(ptr noundef nonnull readonly align 8 dereferenceable(16) %0, ptr noundef nonnull %1)
  %4 = load i64, ptr @TypeProfileWidth, align 8
  %5 = trunc i64 %4 to i32
  %6 = shl i32 %5, 1
  %7 = or disjoint i32 %6, 1
  %8 = getelementptr inbounds i8, ptr %0, i64 8
  %9 = load ptr, ptr %8, align 8
  %10 = getelementptr inbounds i8, ptr %9, i64 8
  %11 = sext i32 %7 to i64
  %12 = getelementptr inbounds [1 x i64], ptr %10, i64 0, i64 %11
  %13 = load i64, ptr %12, align 8
  %14 = trunc i64 %13 to i32
  %15 = icmp sgt i32 %14, 1
  br i1 %15, label %16, label %19

16:                                               ; preds = %3
  %17 = tail call noundef i32 @_ZN12outputStream7fill_toEi(ptr noundef nonnull align 8 dereferenceable(56) %1, i32 noundef 16) #20
  tail call void (ptr, ptr, ...) @_ZN12outputStream5printEPKcz(ptr noundef nonnull align 8 dereferenceable(56) %1, ptr noundef nonnull @.str.20) #20
  %18 = getelementptr inbounds i8, ptr %0, i64 16
  tail call void @_ZNK20TypeStackSlotEntries13print_data_onEP12outputStream(ptr noundef nonnull align 8 dereferenceable(16) %18, ptr noundef nonnull %1)
  %.pre = load i64, ptr @TypeProfileWidth, align 8
  %.pre9 = load ptr, ptr %8, align 8
  %.pre10 = trunc i64 %.pre to i32
  %.pre11 = shl i32 %.pre10, 1
  %.pre13 = or disjoint i32 %.pre11, 1
  %.pre15 = sext i32 %.pre13 to i64
  br label %19

19:                                               ; preds = %16, %3
  %.pre-phi16 = phi i64 [ %.pre15, %16 ], [ %11, %3 ]
  %20 = phi ptr [ %.pre9, %16 ], [ %9, %3 ]
  %21 = getelementptr inbounds i8, ptr %20, i64 8
  %22 = getelementptr inbounds [1 x i64], ptr %21, i64 0, i64 %.pre-phi16
  %23 = load i64, ptr %22, align 8
  %24 = and i64 %23, 1
  %.not = icmp eq i64 %24, 0
  br i1 %.not, label %52, label %25

25:                                               ; preds = %19
  %26 = tail call noundef i32 @_ZN12outputStream7fill_toEi(ptr noundef nonnull align 8 dereferenceable(56) %1, i32 noundef 16) #20
  tail call void (ptr, ptr, ...) @_ZN12outputStream5printEPKcz(ptr noundef nonnull align 8 dereferenceable(56) %1, ptr noundef nonnull @.str.21) #20
  %27 = getelementptr inbounds i8, ptr %0, i64 32
  %28 = tail call noundef i32 @_ZN12outputStream7fill_toEi(ptr noundef nonnull align 8 dereferenceable(56) %1, i32 noundef 36) #20
  %29 = load ptr, ptr %27, align 8
  %30 = getelementptr inbounds i8, ptr %0, i64 40
  %31 = load i32, ptr %30, align 8
  %32 = getelementptr inbounds i8, ptr %29, i64 8
  %33 = load ptr, ptr %32, align 8
  %34 = getelementptr inbounds i8, ptr %33, i64 8
  %35 = sext i32 %31 to i64
  %36 = getelementptr inbounds [1 x i64], ptr %34, i64 0, i64 %35
  %37 = load i64, ptr %36, align 8
  %38 = icmp ult i64 %37, 2
  br i1 %38, label %39, label %40

39:                                               ; preds = %25
  tail call void (ptr, ptr, ...) @_ZN12outputStream5printEPKcz(ptr noundef nonnull align 8 dereferenceable(56) %1, ptr noundef nonnull @.str.16) #20
  br label %49

40:                                               ; preds = %25
  %41 = and i64 %37, 2
  %.not.i.i = icmp eq i64 %41, 0
  br i1 %.not.i.i, label %43, label %42

42:                                               ; preds = %40
  tail call void (ptr, ptr, ...) @_ZN12outputStream5printEPKcz(ptr noundef nonnull align 8 dereferenceable(56) %1, ptr noundef nonnull @.str.17) #20
  br label %49

43:                                               ; preds = %40
  %44 = and i64 %37, -4
  %45 = inttoptr i64 %44 to ptr
  %46 = load ptr, ptr %45, align 8
  %47 = getelementptr inbounds i8, ptr %46, i64 88
  %48 = load ptr, ptr %47, align 8
  tail call void %48(ptr noundef nonnull align 8 dereferenceable(8) %45, ptr noundef nonnull %1) #20
  br label %49

49:                                               ; preds = %43, %42, %39
  %50 = and i64 %37, 1
  %.not7.i.i = icmp eq i64 %50, 0
  br i1 %.not7.i.i, label %_ZNK15ReturnTypeEntry13print_data_onEP12outputStream.exit, label %51

51:                                               ; preds = %49
  tail call void (ptr, ptr, ...) @_ZN12outputStream5printEPKcz(ptr noundef nonnull align 8 dereferenceable(56) %1, ptr noundef nonnull @.str.18) #20
  br label %_ZNK15ReturnTypeEntry13print_data_onEP12outputStream.exit

_ZNK15ReturnTypeEntry13print_data_onEP12outputStream.exit: ; preds = %49, %51
  tail call void @_ZN12outputStream2crEv(ptr noundef nonnull align 8 dereferenceable(56) %1) #20
  br label %52

52:                                               ; preds = %_ZNK15ReturnTypeEntry13print_data_onEP12outputStream.exit, %19
  ret void
}